; Function Attrs: nounwind uwtable
define ptr @l___private_Lean_Compiler_IR_RC_0__Lean_IR_ExplicitRC_getNumConsumptions___boxed(ptr noundef %0, ptr noundef %1, ptr noundef %2) local_unnamed_addr #0 {
  %4 = getelementptr i8, ptr %1, i64 8
  %.val.i = load i64, ptr %4, align 8, !tbaa !13
  %5 = shl i64 %.val.i, 1
  %6 = or disjoint i64 %5, 1
  %7 = inttoptr i64 %6 to ptr
  %8 = tail call ptr @l_Nat_foldTR_loop___at___private_Lean_Compiler_IR_RC_0__Lean_IR_ExplicitRC_getNumConsumptions___spec__1(ptr noundef %0, ptr noundef readonly %1, ptr noundef %2, ptr noundef nonnull %7, ptr noundef nonnull %7, ptr nonnull poison, ptr noundef nonnull inttoptr (i64 1 to ptr))
  %9 = ptrtoint ptr %1 to i64
  %10 = and i64 %9, 1
  %.not = icmp eq i64 %10, 0
  br i1 %.not, label %11, label %lean_dec.exit6

11:                                               ; preds = %3
  %12 = load i32, ptr %1, align 4, !tbaa !8
  %13 = icmp sgt i32 %12, 1
  br i1 %13, label %14, label %16, !prof !11

14:                                               ; preds = %11
  %15 = add nsw i32 %12, -1
  store i32 %15, ptr %1, align 4, !tbaa !8
  br label %lean_dec.exit6

16:                                               ; preds = %11
  %.not.i = icmp eq i32 %12, 0
  br i1 %.not.i, label %lean_dec.exit6, label %17

17:                                               ; preds = %16
  tail call void @lean_dec_ref_cold(ptr noundef nonnull %1) #6
  br label %lean_dec.exit6

lean_dec.exit6:                                   ; preds = %17, %16, %14, %3
  %18 = ptrtoint ptr %0 to i64
  %19 = and i64 %18, 1
  %.not9 = icmp eq i64 %19, 0
  br i1 %.not9, label %20, label %lean_dec.exit

20:                                               ; preds = %lean_dec.exit6
  %21 = load i32, ptr %0, align 4, !tbaa !8
  %22 = icmp sgt i32 %21, 1
  br i1 %22, label %23, label %25, !prof !11

23:                                               ; preds = %20
  %24 = add nsw i32 %21, -1
  store i32 %24, ptr %0, align 4, !tbaa !8
  br label %lean_dec.exit

25:                                               ; preds = %20
  %.not.i7 = icmp eq i32 %21, 0
  br i1 %.not.i7, label %lean_dec.exit, label %26

26:                                               ; preds = %25
  tail call void @lean_dec_ref_cold(ptr noundef nonnull %0) #6
  br label %lean_dec.exit

lean_dec.exit:                                    ; preds = %26, %25, %23, %lean_dec.exit6
  ret ptr %8
}